target datalayout = "e-m:e-p270:32:32-p271:32:32-p272:64:64-i64:64-i128:128-f80:128-n8:16:32:64-S128"
target triple = "x86_64-pc-linux-gnu"

; Function Attrs: inlinehint nounwind uwtable
define internal i32 @Abc_LitIsCompl(i32 noundef %0) #3 {
  %2 = alloca i32, align 4
  store i32 %0, ptr %2, align 4, !tbaa !24
  %3 = load i32, ptr %2, align 4, !tbaa !24
  %4 = and i32 %3, 1
  ret i32 %4
}

; Function Attrs: inlinehint nounwind uwtable
define internal i32 @Abc_LitRegular(i32 noundef %0) #3 {
  %2 = alloca i32, align 4
  store i32 %0, ptr %2, align 4, !tbaa !24
  %3 = load i32, ptr %2, align 4, !tbaa !24
  %4 = and i32 %3, -2
  ret i32 %4
}

; Function Attrs: nounwind uwtable
define i64 @Ifd_ObjTruth(ptr noundef %0, i32 noundef %1) #0 {
  %3 = alloca i64, align 8
  %4 = alloca ptr, align 8
  %5 = alloca i32, align 4
  %6 = alloca i64, align 8
  %7 = alloca i32, align 4
  %8 = alloca i32, align 4
  store ptr %0, ptr %4, align 8, !tbaa !3
  store i32 %1, ptr %5, align 4, !tbaa !24
  call void @llvm.lifetime.start.p0(i64 8, ptr %6) #12
  call void @llvm.lifetime.start.p0(i64 4, ptr %7) #12
  store i32 0, ptr %7, align 4, !tbaa !24
  %9 = load i32, ptr %5, align 4, !tbaa !24
  %10 = icmp eq i32 %9, 0
  br i1 %10, label %11, label %12

11:                                               ; preds = %2
  store i64 0, ptr %3, align 8
  store i32 1, ptr %8, align 4
  br label %31

12:                                               ; preds = %2
  %13 = load i32, ptr %5, align 4, !tbaa !24
  %14 = icmp eq i32 %13, 1
  br i1 %14, label %15, label %16

15:                                               ; preds = %12
  store i64 -1, ptr %3, align 8
  store i32 1, ptr %8, align 4
  br label %31

16:                                               ; preds = %12
  %17 = load ptr, ptr %4, align 8, !tbaa !3
  %18 = load i32, ptr %5, align 4, !tbaa !24
  %19 = call i32 @Abc_LitRegular(i32 noundef %18)
  %20 = call i64 @Ifd_ObjTruth_rec(ptr noundef %17, i32 noundef %19, ptr noundef %7)
  store i64 %20, ptr %6, align 8, !tbaa !55
  %21 = load i32, ptr %5, align 4, !tbaa !24
  %22 = call i32 @Abc_LitIsCompl(i32 noundef %21)
  %23 = icmp ne i32 %22, 0
  br i1 %23, label %24, label %27

24:                                               ; preds = %16
  %25 = load i64, ptr %6, align 8, !tbaa !55
  %26 = xor i64 %25, -1
  br label %29

27:                                               ; preds = %16
  %28 = load i64, ptr %6, align 8, !tbaa !55
  br label %29

29:                                               ; preds = %27, %24
  %30 = phi i64 [ %26, %24 ], [ %28, %27 ]
  store i64 %30, ptr %3, align 8
  store i32 1, ptr %8, align 4
  br label %31

31:                                               ; preds = %29, %15, %11
  call void @llvm.lifetime.end.p0(i64 4, ptr %7) #12
  call void @llvm.lifetime.end.p0(i64 8, ptr %6) #12
  %32 = load i64, ptr %3, align 8
  ret i64 %32
}