; Function Attrs: nofree nosync nounwind memory(read, argmem: readwrite, inaccessiblemem: none) uwtable
define i64 @Ifd_ObjTruth(ptr noundef %0, i32 noundef %1) local_unnamed_addr #11 {
  %3 = alloca i32, align 4
  call void @llvm.lifetime.start.p0(i64 4, ptr nonnull %3) #28
  store i32 0, ptr %3, align 4, !tbaa !37
  switch i32 %1, label %5 [
    i32 0, label %11
    i32 1, label %4
  ]

4:                                                ; preds = %2
  br label %11

5:                                                ; preds = %2
  %6 = and i32 %1, -2
  %7 = call i64 @Ifd_ObjTruth_rec(ptr noundef %0, i32 noundef %6, ptr noundef nonnull %3)
  %8 = and i32 %1, 1
  %sext = sub nsw i32 0, %8
  %9 = sext i32 %sext to i64
  %10 = xor i64 %7, %9
  br label %11

11:                                               ; preds = %2, %5, %4
  %.0 = phi i64 [ -1, %4 ], [ %10, %5 ], [ 0, %2 ]
  call void @llvm.lifetime.end.p0(i64 4, ptr nonnull %3) #28
  ret i64 %.0
}